(dp0
S'buildDestination'
p1
S''
p2
sS'saveDestination'
p3
V/Users/retroverse/Desktop/LLM/1drpg/branched/example_placement.tws
p4
sS'metadata'
p5
(dp6
sS'target'
p7
S'sugarcane'
p8
sS'storyPanel'
p9
(dp10
S'widgets'
p11
(lp12
(dp13
S'selected'
p14
I00
sS'pos'
p15
(lp16
I10
aI10
asS'passage'
p17
(itiddlywiki
Tiddler
p18
(dp20
S'text'
p21
VYour story will display this passage first. Edit it by double clicking it.\u000a\u000a[[one]]\u000a
p22
sS'title'
p23
VStart
p24
sS'modified'
p25
ctime
struct_time
p26
((I2025
I9
I29
I11
I43
I27
I0
I272
I1
tp27
(dp28
tp29
Rp30
sS'tags'
p31
(lp32
sS'created'
p33
g26
((I2025
I9
I29
I11
I43
I19
I0
I272
I1
tp34
(dp35
tp36
Rp37
sbsa(dp38
g14
I00
sg15
(lp39
I10
aI150
asg17
(itiddlywiki
Tiddler
p40
(dp41
g21
S'Untitled Story'
p42
sg23
S'StoryTitle'
p43
sg25
g26
((I2025
I9
I29
I11
I43
I19
I0
I272
I1
tp44
(dp45
tp46
Rp47
sg31
(lp48
sg33
g47
sbsa(dp49
g14
I00
sg15
(lp50
I10
aI290
asg17
(itiddlywiki
Tiddler
p51
(dp52
g21
S'Anonymous'
p53
sg23
S'StoryAuthor'
p54
sg25
g26
((I2025
I9
I29
I11
I43
I19
I0
I272
I1
tp55
(dp56
tp57
Rp58
sg31
(lp59
sg33
g58
sbsa(dp60
g14
I00
sg15
(lp61
F262.0
aF10.0
asg17
(itiddlywiki
Tiddler
p62
(dp63
g21
V[[two_a]]\u000a[[two_b]]
p64
sg23
Vone
p65
sg25
g26
((I2025
I9
I29
I11
I43
I50
I0
I272
I1
tp66
(dp67
tp68
Rp69
sg31
(lp70
sg33
g26
((I2025
I9
I29
I11
I43
I36
I0
I272
I1
tp71
(dp72
tp73
Rp74
sbsa(dp75
g14
I00
sg15
(lp76
F408.0
aF152.0
asg17
(itiddlywiki
Tiddler
p77
(dp78
g21
V
p79
sg23
Vtwo_b
p80
sg25
g26
((I2025
I9
I29
I11
I43
I54
I0
I272
I1
tp81
(dp82
tp83
Rp84
sg31
(lp85
sg33
g84
sbsa(dp86
g14
I00
sg15
(lp87
F413.0
aF9.0
asg17
(itiddlywiki
Tiddler
p88
(dp89
g21
V[[three_a]]\u000a[[three_b]]\u000a[[three_c]]\u000a
p90
sg23
Vtwo_a
p91
sg25
g26
((I2025
I9
I29
I11
I44
I26
I0
I272
I1
tp92
(dp93
tp94
Rp95
sg31
(lp96
sg33
g26
((I2025
I9
I29
I11
I43
I54
I0
I272
I1
tp97
(dp98
tp99
Rp100
sbsa(dp101
g14
I00
sg15
(lp102
F650.0
aF504.0
asg17
(itiddlywiki
Tiddler
p103
(dp104
g21
V[[four_b_1]]\u000a[[four_b_2]]\u000a[[four_b_3]]\u000a
p105
sg23
Vthree_b
p106
sg25
g26
((I2025
I9
I29
I11
I46
I35
I0
I272
I1
tp107
(dp108
tp109
Rp110
sg31
(lp111
sg33
g26
((I2025
I9
I29
I11
I44
I30
I0
I272
I1
tp112
(dp113
tp114
Rp115
sbsa(dp116
g14
I00
sg15
(lp117
F618.0
aF940.0
asg17
(itiddlywiki
Tiddler
p118
(dp119
g21
V[[four_c_1]]\u000a[[four_c_2]]
p120
sg23
Vthree_c
p121
sg25
g26
((I2025
I9
I29
I11
I48
I41
I0
I272
I1
tp122
(dp123
tp124
Rp125
sg31
(lp126
sg33
g26
((I2025
I9
I29
I11
I44
I30
I0
I272
I1
tp127
(dp128
tp129
Rp130
sbsa(dp131
g14
I00
sg15
(lp132
F632.0
aF8.0
asg17
(itiddlywiki
Tiddler
p133
(dp134
g21
V[[four_a]]\u000a[[four_b]]\u000a[[four_c]]
p135
sg23
Vthree_a
p136
sg25
g26
((I2025
I9
I29
I11
I45
I24
I0
I272
I1
tp137
(dp138
tp139
Rp140
sg31
(lp141
sg33
g26
((I2025
I9
I29
I11
I44
I30
I0
I272
I1
tp142
(dp143
tp144
Rp145
sbsa(dp146
g14
I00
sg15
(lp147
F881.0
aF289.0
asg17
(itiddlywiki
Tiddler
p148
(dp149
g21
g79
sg23
Vfour_c
p150
sg25
g26
((I2025
I9
I29
I11
I45
I28
I0
I272
I1
tp151
(dp152
tp153
Rp154
sg31
(lp155
sg33
g154
sbsa(dp156
g14
I00
sg15
(lp157
F884.0
aF148.0
asg17
(itiddlywiki
Tiddler
p158
(dp159
g21
g79
sg23
Vfour_b
p160
sg25
g26
((I2025
I9
I29
I11
I45
I28
I0
I272
I1
tp161
(dp162
tp163
Rp164
sg31
(lp165
sg33
g164
sbsa(dp166
g14
I00
sg15
(lp167
F881.0
aF11.0
asg17
(itiddlywiki
Tiddler
p168
(dp169
g21
g79
sg23
Vfour_a
p170
sg25
g26
((I2025
I9
I29
I11
I45
I28
I0
I272
I1
tp171
(dp172
tp173
Rp174
sg31
(lp175
sg33
g174
sbsa(dp176
g14
I00
sg15
(lp177
F886.0
aF639.0
asg17
(itiddlywiki
Tiddler
p178
(dp179
g21
g79
sg23
Vfour_b_2
p180
sg25
g26
((I2025
I9
I29
I11
I46
I38
I0
I272
I1
tp181
(dp182
tp183
Rp184
sg31
(lp185
sg33
g184
sbsa(dp186
g14
I00
sg15
(lp187
F886.0
aF785.0
asg17
(itiddlywiki
Tiddler
p188
(dp189
g21
g79
sg23
Vfour_b_3
p190
sg25
g26
((I2025
I9
I29
I11
I46
I38
I0
I272
I1
tp191
(dp192
tp193
Rp194
sg31
(lp195
sg33
g194
sbsa(dp196
g14
I00
sg15
(lp197
F890.0
aF502.0
asg17
(itiddlywiki
Tiddler
p198
(dp199
g21
g79
sg23
Vfour_b_1
p200
sg25
g26
((I2025
I9
I29
I11
I46
I38
I0
I272
I1
tp201
(dp202
tp203
Rp204
sg31
(lp205
sg33
g204
sbsa(dp206
g14
I00
sg15
(lp207
F888.0
aF1081.0
asg17
(itiddlywiki
Tiddler
p208
(dp209
g21
g79
sg23
Vfour_c_2
p210
sg25
g26
((I2025
I9
I29
I11
I48
I47
I0
I272
I1
tp211
(dp212
tp213
Rp214
sg31
(lp215
sg33
g214
sbsa(dp216
g14
I00
sg15
(lp217
F887.0
aF942.0
asg17
(itiddlywiki
Tiddler
p218
(dp219
g21
g79
sg23
Vfour_c_1
p220
sg25
g26
((I2025
I9
I29
I11
I48
I47
I0
I272
I1
tp221
(dp222
tp223
Rp224
sg31
(lp225
sg33
g224
sbsasS'scale'
p226
I1
sS'snapping'
p227
I00
ss.